; ModuleID = '35/1434.c'
source_filename = "35/1434.c"
target datalayout = "e-m:e-p270:32:32-p271:32:32-p272:64:64-i64:64-f80:128-n8:16:32:64-S128"
target triple = "x86_64-pc-linux-gnu"

@.str = private unnamed_addr constant [6 x i8] c"%d,%d\00", align 1
@.str.1 = private unnamed_addr constant [3 x i8] c"%d\00", align 1
@.str.2 = private unnamed_addr constant [6 x i8] c"%d+%d\00", align 1
@.str.3 = private unnamed_addr constant [3 x i8] c"No\00", align 1

; Function Attrs: noinline nounwind uwtable
define dso_local i32 @main() #0 {
  %1 = alloca i32, align 4
  %2 = alloca i32, align 4
  %3 = alloca i32, align 4
  %4 = alloca [8 x [8 x i32]], align 16
  %5 = alloca i32, align 4
  %6 = alloca i32, align 4
  %7 = alloca [8 x i32], align 16
  %8 = alloca i32, align 4
  %9 = alloca [8 x i32], align 16
  %10 = alloca i32, align 4
  %11 = alloca i32, align 4
  store i32 0, i32* %1, align 4
  store i32 1, i32* %8, align 4
  store i32 0, i32* %11, align 4
  %12 = call i32 (i8*, ...) @__isoc99_scanf(i8* getelementptr inbounds ([6 x i8], [6 x i8]* @.str, i64 0, i64 0), i32* %2, i32* %3)
  store i32 0, i32* %5, align 4
  br label %13

13:                                               ; preds = %34, %0
  %14 = load i32, i32* %5, align 4
  %15 = load i32, i32* %2, align 4
  %16 = icmp slt i32 %14, %15
  br i1 %16, label %17, label %37

17:                                               ; preds = %13
  store i32 0, i32* %6, align 4
  br label %18

18:                                               ; preds = %30, %17
  %19 = load i32, i32* %6, align 4
  %20 = load i32, i32* %3, align 4
  %21 = icmp slt i32 %19, %20
  br i1 %21, label %22, label %33

22:                                               ; preds = %18
  %23 = load i32, i32* %5, align 4
  %24 = sext i32 %23 to i64
  %25 = getelementptr inbounds [8 x [8 x i32]], [8 x [8 x i32]]* %4, i64 0, i64 %24
  %26 = load i32, i32* %6, align 4
  %27 = sext i32 %26 to i64
  %28 = getelementptr inbounds [8 x i32], [8 x i32]* %25, i64 0, i64 %27
  %29 = call i32 (i8*, ...) @__isoc99_scanf(i8* getelementptr inbounds ([3 x i8], [3 x i8]* @.str.1, i64 0, i64 0), i32* %28)
  br label %30

30:                                               ; preds = %22
  %31 = load i32, i32* %6, align 4
  %32 = add nsw i32 %31, 1
  store i32 %32, i32* %6, align 4
  br label %18

33:                                               ; preds = %18
  br label %34

34:                                               ; preds = %33
  %35 = load i32, i32* %5, align 4
  %36 = add nsw i32 %35, 1
  store i32 %36, i32* %5, align 4
  br label %13

37:                                               ; preds = %13
  store i32 0, i32* %5, align 4
  br label %38

38:                                               ; preds = %92, %37
  %39 = load i32, i32* %5, align 4
  %40 = load i32, i32* %2, align 4
  %41 = icmp slt i32 %39, %40
  br i1 %41, label %42, label %95

42:                                               ; preds = %38
  store i32 0, i32* %6, align 4
  br label %43

43:                                               ; preds = %86, %42
  %44 = load i32, i32* %6, align 4
  %45 = load i32, i32* %3, align 4
  %46 = icmp slt i32 %44, %45
  br i1 %46, label %47, label %89

47:                                               ; preds = %43
  %48 = load i32, i32* %6, align 4
  %49 = icmp eq i32 %48, 0
  br i1 %49, label %50, label %59

50:                                               ; preds = %47
  %51 = load i32, i32* %6, align 4
  %52 = load i32, i32* %8, align 4
  %53 = sext i32 %52 to i64
  %54 = getelementptr inbounds [8 x i32], [8 x i32]* %7, i64 0, i64 %53
  store i32 %51, i32* %54, align 4
  %55 = load i32, i32* %5, align 4
  %56 = load i32, i32* %8, align 4
  %57 = sext i32 %56 to i64
  %58 = getelementptr inbounds [8 x i32], [8 x i32]* %9, i64 0, i64 %57
  store i32 %55, i32* %58, align 4
  br label %59

59:                                               ; preds = %50, %47
  %60 = load i32, i32* %5, align 4
  %61 = sext i32 %60 to i64
  %62 = getelementptr inbounds [8 x [8 x i32]], [8 x [8 x i32]]* %4, i64 0, i64 %61
  %63 = load i32, i32* %6, align 4
  %64 = sub nsw i32 %63, 1
  %65 = sext i32 %64 to i64
  %66 = getelementptr inbounds [8 x i32], [8 x i32]* %62, i64 0, i64 %65
  %67 = load i32, i32* %66, align 4
  %68 = load i32, i32* %5, align 4
  %69 = sext i32 %68 to i64
  %70 = getelementptr inbounds [8 x [8 x i32]], [8 x [8 x i32]]* %4, i64 0, i64 %69
  %71 = load i32, i32* %6, align 4
  %72 = sext i32 %71 to i64
  %73 = getelementptr inbounds [8 x i32], [8 x i32]* %70, i64 0, i64 %72
  %74 = load i32, i32* %73, align 4
  %75 = icmp slt i32 %67, %74
  br i1 %75, label %76, label %85

76:                                               ; preds = %59
  %77 = load i32, i32* %6, align 4
  %78 = load i32, i32* %8, align 4
  %79 = sext i32 %78 to i64
  %80 = getelementptr inbounds [8 x i32], [8 x i32]* %7, i64 0, i64 %79
  store i32 %77, i32* %80, align 4
  %81 = load i32, i32* %5, align 4
  %82 = load i32, i32* %8, align 4
  %83 = sext i32 %82 to i64
  %84 = getelementptr inbounds [8 x i32], [8 x i32]* %9, i64 0, i64 %83
  store i32 %81, i32* %84, align 4
  br label %85

85:                                               ; preds = %76, %59
  br label %86

86:                                               ; preds = %85
  %87 = load i32, i32* %6, align 4
  %88 = add nsw i32 %87, 1
  store i32 %88, i32* %6, align 4
  br label %43

89:                                               ; preds = %43
  %90 = load i32, i32* %8, align 4
  %91 = add nsw i32 %90, 1
  store i32 %91, i32* %8, align 4
  br label %92

92:                                               ; preds = %89
  %93 = load i32, i32* %5, align 4
  %94 = add nsw i32 %93, 1
  store i32 %94, i32* %5, align 4
  br label %38

95:                                               ; preds = %38
  store i32 1, i32* %8, align 4
  br label %96

96:                                               ; preds = %187, %95
  %97 = load i32, i32* %8, align 4
  %98 = load i32, i32* %2, align 4
  %99 = icmp sle i32 %97, %98
  br i1 %99, label %100, label %190

100:                                              ; preds = %96
  %101 = load i32, i32* %8, align 4
  %102 = sext i32 %101 to i64
  %103 = getelementptr inbounds [8 x i32], [8 x i32]* %9, i64 0, i64 %102
  %104 = load i32, i32* %103, align 4
  %105 = sext i32 %104 to i64
  %106 = getelementptr inbounds [8 x [8 x i32]], [8 x [8 x i32]]* %4, i64 0, i64 %105
  %107 = load i32, i32* %8, align 4
  %108 = sext i32 %107 to i64
  %109 = getelementptr inbounds [8 x i32], [8 x i32]* %7, i64 0, i64 %108
  %110 = load i32, i32* %109, align 4
  %111 = sext i32 %110 to i64
  %112 = getelementptr inbounds [8 x i32], [8 x i32]* %106, i64 0, i64 %111
  %113 = load i32, i32* %112, align 4
  store i32 %113, i32* %10, align 4
  store i32 0, i32* %5, align 4
  br label %114

114:                                              ; preds = %155, %100
  %115 = load i32, i32* %5, align 4
  %116 = load i32, i32* %2, align 4
  %117 = icmp slt i32 %115, %116
  br i1 %117, label %118, label %158

118:                                              ; preds = %114
  %119 = load i32, i32* %5, align 4
  %120 = sext i32 %119 to i64
  %121 = getelementptr inbounds [8 x [8 x i32]], [8 x [8 x i32]]* %4, i64 0, i64 %120
  %122 = load i32, i32* %8, align 4
  %123 = sext i32 %122 to i64
  %124 = getelementptr inbounds [8 x i32], [8 x i32]* %7, i64 0, i64 %123
  %125 = load i32, i32* %124, align 4
  %126 = sext i32 %125 to i64
  %127 = getelementptr inbounds [8 x i32], [8 x i32]* %121, i64 0, i64 %126
  %128 = load i32, i32* %127, align 4
  %129 = load i32, i32* %8, align 4
  %130 = sext i32 %129 to i64
  %131 = getelementptr inbounds [8 x i32], [8 x i32]* %9, i64 0, i64 %130
  %132 = load i32, i32* %131, align 4
  %133 = sext i32 %132 to i64
  %134 = getelementptr inbounds [8 x [8 x i32]], [8 x [8 x i32]]* %4, i64 0, i64 %133
  %135 = load i32, i32* %8, align 4
  %136 = sext i32 %135 to i64
  %137 = getelementptr inbounds [8 x i32], [8 x i32]* %7, i64 0, i64 %136
  %138 = load i32, i32* %137, align 4
  %139 = sext i32 %138 to i64
  %140 = getelementptr inbounds [8 x i32], [8 x i32]* %134, i64 0, i64 %139
  %141 = load i32, i32* %140, align 4
  %142 = icmp slt i32 %128, %141
  br i1 %142, label %143, label %154

143:                                              ; preds = %118
  %144 = load i32, i32* %5, align 4
  %145 = sext i32 %144 to i64
  %146 = getelementptr inbounds [8 x [8 x i32]], [8 x [8 x i32]]* %4, i64 0, i64 %145
  %147 = load i32, i32* %8, align 4
  %148 = sext i32 %147 to i64
  %149 = getelementptr inbounds [8 x i32], [8 x i32]* %7, i64 0, i64 %148
  %150 = load i32, i32* %149, align 4
  %151 = sext i32 %150 to i64
  %152 = getelementptr inbounds [8 x i32], [8 x i32]* %146, i64 0, i64 %151
  %153 = load i32, i32* %152, align 4
  store i32 %153, i32* %10, align 4
  br label %154

154:                                              ; preds = %143, %118
  br label %155

155:                                              ; preds = %154
  %156 = load i32, i32* %5, align 4
  %157 = add nsw i32 %156, 1
  store i32 %157, i32* %5, align 4
  br label %114

158:                                              ; preds = %114
  %159 = load i32, i32* %10, align 4
  %160 = load i32, i32* %8, align 4
  %161 = sext i32 %160 to i64
  %162 = getelementptr inbounds [8 x i32], [8 x i32]* %9, i64 0, i64 %161
  %163 = load i32, i32* %162, align 4
  %164 = sext i32 %163 to i64
  %165 = getelementptr inbounds [8 x [8 x i32]], [8 x [8 x i32]]* %4, i64 0, i64 %164
  %166 = load i32, i32* %8, align 4
  %167 = sext i32 %166 to i64
  %168 = getelementptr inbounds [8 x i32], [8 x i32]* %7, i64 0, i64 %167
  %169 = load i32, i32* %168, align 4
  %170 = sext i32 %169 to i64
  %171 = getelementptr inbounds [8 x i32], [8 x i32]* %165, i64 0, i64 %170
  %172 = load i32, i32* %171, align 4
  %173 = icmp eq i32 %159, %172
  br i1 %173, label %174, label %186

174:                                              ; preds = %158
  %175 = load i32, i32* %11, align 4
  %176 = add nsw i32 %175, 1
  store i32 %176, i32* %11, align 4
  %177 = load i32, i32* %8, align 4
  %178 = sext i32 %177 to i64
  %179 = getelementptr inbounds [8 x i32], [8 x i32]* %9, i64 0, i64 %178
  %180 = load i32, i32* %179, align 4
  %181 = load i32, i32* %8, align 4
  %182 = sext i32 %181 to i64
  %183 = getelementptr inbounds [8 x i32], [8 x i32]* %7, i64 0, i64 %182
  %184 = load i32, i32* %183, align 4
  %185 = call i32 (i8*, ...) @printf(i8* getelementptr inbounds ([6 x i8], [6 x i8]* @.str.2, i64 0, i64 0), i32 %180, i32 %184)
  br label %186

186:                                              ; preds = %174, %158
  br label %187

187:                                              ; preds = %186
  %188 = load i32, i32* %8, align 4
  %189 = add nsw i32 %188, 1
  store i32 %189, i32* %8, align 4
  br label %96

190:                                              ; preds = %96
  %191 = load i32, i32* %11, align 4
  %192 = icmp eq i32 %191, 0
  br i1 %192, label %193, label %195

193:                                              ; preds = %190
  %194 = call i32 (i8*, ...) @printf(i8* getelementptr inbounds ([3 x i8], [3 x i8]* @.str.3, i64 0, i64 0))
  br label %195

195:                                              ; preds = %193, %190
  ret i32 0
}

declare dso_local i32 @__isoc99_scanf(i8*, ...) #1

declare dso_local i32 @printf(i8*, ...) #1


!llvm.module.flags = !{!0}
!llvm.ident = !{!1}

!0 = !{i32 1, !"wchar_size", i32 4}
!1 = !{!"clang version 10.0.0-4ubuntu1 "}
